target datalayout = "e-m:e-p270:32:32-p271:32:32-p272:64:64-i64:64-i128:128-f80:128-n8:16:32:64-S128"
target triple = "x86_64-pc-linux-gnu"

%struct.gmx_sparsematrix = type { i8, i32, ptr, ptr, ptr }
%struct.gmx_sparsematrix_entry = type { i32, float }

; Function Attrs: mustprogress uwtable
define void @_Z25gmx_sparsematrix_compressP16gmx_sparsematrix(ptr noundef %0) #0 {
  %2 = alloca ptr, align 8
  %3 = alloca i32, align 4
  %4 = alloca i32, align 4
  store ptr %0, ptr %2, align 8, !tbaa !7
  call void @llvm.lifetime.start.p0(i64 4, ptr %3) #7
  call void @llvm.lifetime.start.p0(i64 4, ptr %4) #7
  store i32 0, ptr %3, align 4, !tbaa !3
  br label %5

5:                                                ; preds = %167, %1
  %6 = load i32, ptr %3, align 4, !tbaa !3
  %7 = load ptr, ptr %2, align 8, !tbaa !7
  %8 = getelementptr inbounds nuw %struct.gmx_sparsematrix, ptr %7, i32 0, i32 1
  %9 = load i32, ptr %8, align 4, !tbaa !10
  %10 = icmp slt i32 %6, %9
  br i1 %10, label %11, label %170

11:                                               ; preds = %5
  br label %12

12:                                               ; preds = %44, %11
  %13 = load ptr, ptr %2, align 8, !tbaa !7
  %14 = getelementptr inbounds nuw %struct.gmx_sparsematrix, ptr %13, i32 0, i32 2
  %15 = load ptr, ptr %14, align 8, !tbaa !16
  %16 = load i32, ptr %3, align 4, !tbaa !3
  %17 = sext i32 %16 to i64
  %18 = getelementptr inbounds i32, ptr %15, i64 %17
  %19 = load i32, ptr %18, align 4, !tbaa !3
  %20 = icmp sgt i32 %19, 0
  br i1 %20, label %21, label %42

21:                                               ; preds = %12
  %22 = load ptr, ptr %2, align 8, !tbaa !7
  %23 = getelementptr inbounds nuw %struct.gmx_sparsematrix, ptr %22, i32 0, i32 4
  %24 = load ptr, ptr %23, align 8, !tbaa !18
  %25 = load i32, ptr %3, align 4, !tbaa !3
  %26 = sext i32 %25 to i64
  %27 = getelementptr inbounds ptr, ptr %24, i64 %26
  %28 = load ptr, ptr %27, align 8, !tbaa !19
  %29 = load ptr, ptr %2, align 8, !tbaa !7
  %30 = getelementptr inbounds nuw %struct.gmx_sparsematrix, ptr %29, i32 0, i32 2
  %31 = load ptr, ptr %30, align 8, !tbaa !16
  %32 = load i32, ptr %3, align 4, !tbaa !3
  %33 = sext i32 %32 to i64
  %34 = getelementptr inbounds i32, ptr %31, i64 %33
  %35 = load i32, ptr %34, align 4, !tbaa !3
  %36 = sub nsw i32 %35, 1
  %37 = sext i32 %36 to i64
  %38 = getelementptr inbounds %struct.gmx_sparsematrix_entry, ptr %28, i64 %37
  %39 = getelementptr inbounds nuw %struct.gmx_sparsematrix_entry, ptr %38, i32 0, i32 1
  %40 = load float, ptr %39, align 4, !tbaa !44
  %41 = fcmp oeq float %40, 0.000000e+00
  br label %42

42:                                               ; preds = %21, %12
  %43 = phi i1 [ false, %12 ], [ %41, %21 ]
  br i1 %43, label %44, label %53

44:                                               ; preds = %42
  %45 = load ptr, ptr %2, align 8, !tbaa !7
  %46 = getelementptr inbounds nuw %struct.gmx_sparsematrix, ptr %45, i32 0, i32 2
  %47 = load ptr, ptr %46, align 8, !tbaa !16
  %48 = load i32, ptr %3, align 4, !tbaa !3
  %49 = sext i32 %48 to i64
  %50 = getelementptr inbounds i32, ptr %47, i64 %49
  %51 = load i32, ptr %50, align 4, !tbaa !3
  %52 = add nsw i32 %51, -1
  store i32 %52, ptr %50, align 4, !tbaa !3
  br label %12, !llvm.loop !54

53:                                               ; preds = %42
  store i32 0, ptr %4, align 4, !tbaa !3
  br label %54

54:                                               ; preds = %148, %53
  %55 = load i32, ptr %4, align 4, !tbaa !3
  %56 = load ptr, ptr %2, align 8, !tbaa !7
  %57 = getelementptr inbounds nuw %struct.gmx_sparsematrix, ptr %56, i32 0, i32 2
  %58 = load ptr, ptr %57, align 8, !tbaa !16
  %59 = load i32, ptr %3, align 4, !tbaa !3
  %60 = sext i32 %59 to i64
  %61 = getelementptr inbounds i32, ptr %58, i64 %60
  %62 = load i32, ptr %61, align 4, !tbaa !3
  %63 = icmp slt i32 %55, %62
  br i1 %63, label %64, label %151

64:                                               ; preds = %54
  %65 = load ptr, ptr %2, align 8, !tbaa !7
  %66 = getelementptr inbounds nuw %struct.gmx_sparsematrix, ptr %65, i32 0, i32 4
  %67 = load ptr, ptr %66, align 8, !tbaa !18
  %68 = load i32, ptr %3, align 4, !tbaa !3
  %69 = sext i32 %68 to i64
  %70 = getelementptr inbounds ptr, ptr %67, i64 %69
  %71 = load ptr, ptr %70, align 8, !tbaa !19
  %72 = load i32, ptr %4, align 4, !tbaa !3
  %73 = sext i32 %72 to i64
  %74 = getelementptr inbounds %struct.gmx_sparsematrix_entry, ptr %71, i64 %73
  %75 = getelementptr inbounds nuw %struct.gmx_sparsematrix_entry, ptr %74, i32 0, i32 1
  %76 = load float, ptr %75, align 4, !tbaa !44
  %77 = fcmp oeq float %76, 0.000000e+00
  br i1 %77, label %78, label %147

78:                                               ; preds = %64
  %79 = load ptr, ptr %2, align 8, !tbaa !7
  %80 = getelementptr inbounds nuw %struct.gmx_sparsematrix, ptr %79, i32 0, i32 4
  %81 = load ptr, ptr %80, align 8, !tbaa !18
  %82 = load i32, ptr %3, align 4, !tbaa !3
  %83 = sext i32 %82 to i64
  %84 = getelementptr inbounds ptr, ptr %81, i64 %83
  %85 = load ptr, ptr %84, align 8, !tbaa !19
  %86 = load ptr, ptr %2, align 8, !tbaa !7
  %87 = getelementptr inbounds nuw %struct.gmx_sparsematrix, ptr %86, i32 0, i32 2
  %88 = load ptr, ptr %87, align 8, !tbaa !16
  %89 = load i32, ptr %3, align 4, !tbaa !3
  %90 = sext i32 %89 to i64
  %91 = getelementptr inbounds i32, ptr %88, i64 %90
  %92 = load i32, ptr %91, align 4, !tbaa !3
  %93 = sub nsw i32 %92, 1
  %94 = sext i32 %93 to i64
  %95 = getelementptr inbounds %struct.gmx_sparsematrix_entry, ptr %85, i64 %94
  %96 = getelementptr inbounds nuw %struct.gmx_sparsematrix_entry, ptr %95, i32 0, i32 1
  %97 = load float, ptr %96, align 4, !tbaa !44
  %98 = load ptr, ptr %2, align 8, !tbaa !7
  %99 = getelementptr inbounds nuw %struct.gmx_sparsematrix, ptr %98, i32 0, i32 4
  %100 = load ptr, ptr %99, align 8, !tbaa !18
  %101 = load i32, ptr %3, align 4, !tbaa !3
  %102 = sext i32 %101 to i64
  %103 = getelementptr inbounds ptr, ptr %100, i64 %102
  %104 = load ptr, ptr %103, align 8, !tbaa !19
  %105 = load i32, ptr %4, align 4, !tbaa !3
  %106 = sext i32 %105 to i64
  %107 = getelementptr inbounds %struct.gmx_sparsematrix_entry, ptr %104, i64 %106
  %108 = getelementptr inbounds nuw %struct.gmx_sparsematrix_entry, ptr %107, i32 0, i32 1
  store float %97, ptr %108, align 4, !tbaa !44
  %109 = load ptr, ptr %2, align 8, !tbaa !7
  %110 = getelementptr inbounds nuw %struct.gmx_sparsematrix, ptr %109, i32 0, i32 4
  %111 = load ptr, ptr %110, align 8, !tbaa !18
  %112 = load i32, ptr %3, align 4, !tbaa !3
  %113 = sext i32 %112 to i64
  %114 = getelementptr inbounds ptr, ptr %111, i64 %113
  %115 = load ptr, ptr %114, align 8, !tbaa !19
  %116 = load ptr, ptr %2, align 8, !tbaa !7
  %117 = getelementptr inbounds nuw %struct.gmx_sparsematrix, ptr %116, i32 0, i32 2
  %118 = load ptr, ptr %117, align 8, !tbaa !16
  %119 = load i32, ptr %3, align 4, !tbaa !3
  %120 = sext i32 %119 to i64
  %121 = getelementptr inbounds i32, ptr %118, i64 %120
  %122 = load i32, ptr %121, align 4, !tbaa !3
  %123 = sub nsw i32 %122, 1
  %124 = sext i32 %123 to i64
  %125 = getelementptr inbounds %struct.gmx_sparsematrix_entry, ptr %115, i64 %124
  %126 = getelementptr inbounds nuw %struct.gmx_sparsematrix_entry, ptr %125, i32 0, i32 0
  %127 = load i32, ptr %126, align 4, !tbaa !40
  %128 = load ptr, ptr %2, align 8, !tbaa !7
  %129 = getelementptr inbounds nuw %struct.gmx_sparsematrix, ptr %128, i32 0, i32 4
  %130 = load ptr, ptr %129, align 8, !tbaa !18
  %131 = load i32, ptr %3, align 4, !tbaa !3
  %132 = sext i32 %131 to i64
  %133 = getelementptr inbounds ptr, ptr %130, i64 %132
  %134 = load ptr, ptr %133, align 8, !tbaa !19
  %135 = load i32, ptr %4, align 4, !tbaa !3
  %136 = sext i32 %135 to i64
  %137 = getelementptr inbounds %struct.gmx_sparsematrix_entry, ptr %134, i64 %136
  %138 = getelementptr inbounds nuw %struct.gmx_sparsematrix_entry, ptr %137, i32 0, i32 0
  store i32 %127, ptr %138, align 4, !tbaa !40
  %139 = load ptr, ptr %2, align 8, !tbaa !7
  %140 = getelementptr inbounds nuw %struct.gmx_sparsematrix, ptr %139, i32 0, i32 2
  %141 = load ptr, ptr %140, align 8, !tbaa !16
  %142 = load i32, ptr %3, align 4, !tbaa !3
  %143 = sext i32 %142 to i64
  %144 = getelementptr inbounds i32, ptr %141, i64 %143
  %145 = load i32, ptr %144, align 4, !tbaa !3
  %146 = add nsw i32 %145, -1
  store i32 %146, ptr %144, align 4, !tbaa !3
  br label %147

147:                                              ; preds = %78, %64
  br label %148

148:                                              ; preds = %147
  %149 = load i32, ptr %4, align 4, !tbaa !3
  %150 = add nsw i32 %149, 1
  store i32 %150, ptr %4, align 4, !tbaa !3
  br label %54, !llvm.loop !55

151:                                              ; preds = %54
  %152 = load ptr, ptr %2, align 8, !tbaa !7
  %153 = getelementptr inbounds nuw %struct.gmx_sparsematrix, ptr %152, i32 0, i32 4
  %154 = load ptr, ptr %153, align 8, !tbaa !18
  %155 = load i32, ptr %3, align 4, !tbaa !3
  %156 = sext i32 %155 to i64
  %157 = getelementptr inbounds ptr, ptr %154, i64 %156
  %158 = load ptr, ptr %157, align 8, !tbaa !19
  %159 = load ptr, ptr %2, align 8, !tbaa !7
  %160 = getelementptr inbounds nuw %struct.gmx_sparsematrix, ptr %159, i32 0, i32 2
  %161 = load ptr, ptr %160, align 8, !tbaa !16
  %162 = load i32, ptr %3, align 4, !tbaa !3
  %163 = sext i32 %162 to i64
  %164 = getelementptr inbounds i32, ptr %161, i64 %163
  %165 = load i32, ptr %164, align 4, !tbaa !3
  %166 = sext i32 %165 to i64
  call void @qsort(ptr noundef %158, i64 noundef %166, i64 noundef 8, ptr noundef @_ZL15compare_columnsPKvS0_)
  br label %167

167:                                              ; preds = %151
  %168 = load i32, ptr %3, align 4, !tbaa !3
  %169 = add nsw i32 %168, 1
  store i32 %169, ptr %3, align 4, !tbaa !3
  br label %5, !llvm.loop !56

170:                                              ; preds = %5
  call void @llvm.lifetime.end.p0(i64 4, ptr %4) #7
  call void @llvm.lifetime.end.p0(i64 4, ptr %3) #7
  ret void
}