; Function Attrs: mustprogress nofree uwtable
define void @_Z25gmx_sparsematrix_compressP16gmx_sparsematrix(ptr noundef readonly captures(none) %0) local_unnamed_addr #4 {
  %2 = getelementptr inbounds nuw i8, ptr %0, i64 4
  %3 = load i32, ptr %2, align 4, !tbaa !3
  %4 = icmp sgt i32 %3, 0
  br i1 %4, label %.preheader.lr.ph, label %._crit_edge50

.preheader.lr.ph:                                 ; preds = %1
  %5 = getelementptr inbounds nuw i8, ptr %0, i64 24
  %6 = getelementptr inbounds nuw i8, ptr %0, i64 8
  br label %.preheader

.preheader:                                       ; preds = %.preheader.lr.ph, %._crit_edge
  %indvars.iv55 = phi i64 [ 0, %.preheader.lr.ph ], [ %indvars.iv.next56, %._crit_edge ]
  %7 = load ptr, ptr %6, align 8, !tbaa !15
  %8 = getelementptr inbounds nuw i32, ptr %7, i64 %indvars.iv55
  %.promoted = load i32, ptr %8, align 4, !tbaa !17
  %9 = icmp sgt i32 %.promoted, 0
  %.pre.pre = load ptr, ptr %5, align 8, !tbaa !22
  br i1 %9, label %.lr.ph, label %.critedge.._crit_edge_crit_edge

.lr.ph:                                           ; preds = %.preheader
  %10 = getelementptr inbounds nuw ptr, ptr %.pre.pre, i64 %indvars.iv55
  %11 = load ptr, ptr %10, align 8, !tbaa !18
  %invariant.gep = getelementptr i8, ptr %11, i64 -4
  %12 = zext nneg i32 %.promoted to i64
  %gep59 = getelementptr %struct.gmx_sparsematrix_entry, ptr %invariant.gep, i64 %12
  %13 = load float, ptr %gep59, align 4, !tbaa !29
  %14 = fcmp oeq float %13, 0.000000e+00
  br i1 %14, label %.lr.ph61, label %.critedge

15:                                               ; preds = %.lr.ph61
  %gep = getelementptr %struct.gmx_sparsematrix_entry, ptr %invariant.gep, i64 %indvars.iv.next
  %16 = load float, ptr %gep, align 4, !tbaa !29
  %17 = fcmp oeq float %16, 0.000000e+00
  br i1 %17, label %.lr.ph61, label %.critedge.loopexit, !llvm.loop !35

.lr.ph61:                                         ; preds = %.lr.ph, %15
  %indvars.iv60 = phi i64 [ %indvars.iv.next, %15 ], [ %12, %.lr.ph ]
  %indvars.iv.next = add nsw i64 %indvars.iv60, -1
  %18 = trunc nuw nsw i64 %indvars.iv.next to i32
  %19 = icmp sgt i64 %indvars.iv60, 1
  br i1 %19, label %15, label %.critedge.loopexit, !llvm.loop !35

.critedge.loopexit:                               ; preds = %15, %.lr.ph61
  store i32 %18, ptr %8, align 4, !tbaa !17
  br label %.critedge

.critedge:                                        ; preds = %.critedge.loopexit, %.lr.ph
  %20 = phi i32 [ %.promoted, %.lr.ph ], [ %18, %.critedge.loopexit ]
  %21 = icmp sgt i32 %20, 0
  br i1 %21, label %.lr.ph47, label %.critedge.._crit_edge_crit_edge

.critedge.._crit_edge_crit_edge:                  ; preds = %.preheader, %.critedge
  %22 = phi i32 [ %20, %.critedge ], [ %.promoted, %.preheader ]
  %.phi.trans.insert = getelementptr inbounds nuw ptr, ptr %.pre.pre, i64 %indvars.iv55
  %.pre58 = load ptr, ptr %.phi.trans.insert, align 8, !tbaa !18
  %.pre = sext i32 %22 to i64
  br label %._crit_edge

.lr.ph47:                                         ; preds = %.critedge
  %23 = getelementptr inbounds nuw ptr, ptr %.pre.pre, i64 %indvars.iv55
  %24 = load ptr, ptr %23, align 8, !tbaa !18
  br label %25

25:                                               ; preds = %.lr.ph47, %40
  %26 = phi i32 [ %20, %.lr.ph47 ], [ %41, %40 ]
  %indvars.iv52 = phi i64 [ 0, %.lr.ph47 ], [ %indvars.iv.next53, %40 ]
  %27 = getelementptr inbounds nuw %struct.gmx_sparsematrix_entry, ptr %24, i64 %indvars.iv52, i32 1
  %28 = load float, ptr %27, align 4, !tbaa !29
  %29 = fcmp oeq float %28, 0.000000e+00
  br i1 %29, label %30, label %40

30:                                               ; preds = %25
  %31 = sext i32 %26 to i64
  %32 = getelementptr %struct.gmx_sparsematrix_entry, ptr %24, i64 %31
  %33 = getelementptr i8, ptr %32, i64 -4
  %34 = load float, ptr %33, align 4, !tbaa !29
  store float %34, ptr %27, align 4, !tbaa !29
  %35 = getelementptr i8, ptr %32, i64 -8
  %36 = load i32, ptr %35, align 4, !tbaa !25
  %37 = getelementptr inbounds nuw %struct.gmx_sparsematrix_entry, ptr %24, i64 %indvars.iv52
  store i32 %36, ptr %37, align 4, !tbaa !25
  %38 = load i32, ptr %8, align 4, !tbaa !17
  %39 = add nsw i32 %38, -1
  store i32 %39, ptr %8, align 4, !tbaa !17
  br label %40

40:                                               ; preds = %25, %30
  %41 = phi i32 [ %26, %25 ], [ %39, %30 ]
  %indvars.iv.next53 = add nuw nsw i64 %indvars.iv52, 1
  %42 = sext i32 %41 to i64
  %43 = icmp slt i64 %indvars.iv.next53, %42
  br i1 %43, label %25, label %._crit_edge, !llvm.loop !36

._crit_edge:                                      ; preds = %40, %.critedge.._crit_edge_crit_edge
  %.pre-phi = phi i64 [ %.pre, %.critedge.._crit_edge_crit_edge ], [ %42, %40 ]
  %44 = phi ptr [ %.pre58, %.critedge.._crit_edge_crit_edge ], [ %24, %40 ]
  tail call void @qsort(ptr noundef %44, i64 noundef %.pre-phi, i64 noundef 8, ptr noundef nonnull @_ZL15compare_columnsPKvS0_)
  %indvars.iv.next56 = add nuw nsw i64 %indvars.iv55, 1
  %45 = load i32, ptr %2, align 4, !tbaa !3
  %46 = sext i32 %45 to i64
  %47 = icmp slt i64 %indvars.iv.next56, %46
  br i1 %47, label %.preheader, label %._crit_edge50, !llvm.loop !37

._crit_edge50:                                    ; preds = %._crit_edge, %1
  ret void
}